target datalayout = "e-m:e-p270:32:32-p271:32:32-p272:64:64-i64:64-i128:128-f80:128-n8:16:32:64-S128"
target triple = "x86_64-pc-linux-gnu"

%struct.BulkWriteState = type { ptr, i32, i8, i32, [32 x %struct.PendingWrite], i32, i64, ptr }
%struct.PendingWrite = type { ptr, i32, i8 }

; Function Attrs: nounwind uwtable
define dso_local void @smgr_bulk_write(ptr noundef %0, i32 noundef %1, ptr noundef %2, i1 noundef zeroext %3) #0 {
  %5 = alloca ptr, align 8
  %6 = alloca i32, align 4
  %7 = alloca ptr, align 8
  %8 = alloca i8, align 1
  %9 = alloca ptr, align 8
  store ptr %0, ptr %5, align 8
  store i32 %1, ptr %6, align 4
  store ptr %2, ptr %7, align 8
  %10 = zext i1 %3 to i8
  store i8 %10, ptr %8, align 1
  call void @llvm.lifetime.start.p0(i64 8, ptr %9) #7
  %11 = load ptr, ptr %5, align 8
  %12 = getelementptr inbounds nuw %struct.BulkWriteState, ptr %11, i32 0, i32 4
  %13 = load ptr, ptr %5, align 8
  %14 = getelementptr inbounds nuw %struct.BulkWriteState, ptr %13, i32 0, i32 3
  %15 = load i32, ptr %14, align 8
  %16 = add i32 %15, 1
  store i32 %16, ptr %14, align 8
  %17 = sext i32 %15 to i64
  %18 = getelementptr inbounds [32 x %struct.PendingWrite], ptr %12, i64 0, i64 %17
  store ptr %18, ptr %9, align 8
  %19 = load ptr, ptr %7, align 8
  %20 = load ptr, ptr %9, align 8
  %21 = getelementptr inbounds nuw %struct.PendingWrite, ptr %20, i32 0, i32 0
  store ptr %19, ptr %21, align 8
  %22 = load i32, ptr %6, align 4
  %23 = load ptr, ptr %9, align 8
  %24 = getelementptr inbounds nuw %struct.PendingWrite, ptr %23, i32 0, i32 1
  store i32 %22, ptr %24, align 8
  %25 = load i8, ptr %8, align 1, !range !4, !noundef !5
  %26 = trunc i8 %25 to i1
  %27 = load ptr, ptr %9, align 8
  %28 = getelementptr inbounds nuw %struct.PendingWrite, ptr %27, i32 0, i32 2
  %29 = zext i1 %26 to i8
  store i8 %29, ptr %28, align 4
  %30 = load ptr, ptr %5, align 8
  %31 = getelementptr inbounds nuw %struct.BulkWriteState, ptr %30, i32 0, i32 3
  %32 = load i32, ptr %31, align 8
  %33 = icmp eq i32 %32, 32
  br i1 %33, label %34, label %36

34:                                               ; preds = %4
  %35 = load ptr, ptr %5, align 8
  call void @smgr_bulk_flush(ptr noundef %35)
  br label %36

36:                                               ; preds = %34, %4
  call void @llvm.lifetime.end.p0(i64 8, ptr %9) #7
  ret void
}