; Function Attrs: nounwind uwtable
define dso_local void @smgr_bulk_write(ptr noundef %0, i32 noundef %1, ptr noundef %2, i1 noundef zeroext %3) local_unnamed_addr #0 {
  %5 = zext i1 %3 to i8
  %6 = getelementptr inbounds nuw i8, ptr %0, i64 24
  %7 = getelementptr inbounds nuw i8, ptr %0, i64 16
  %8 = load i32, ptr %7, align 8
  %9 = add i32 %8, 1
  store i32 %9, ptr %7, align 8
  %10 = sext i32 %8 to i64
  %11 = getelementptr inbounds [32 x %struct.PendingWrite], ptr %6, i64 0, i64 %10
  store ptr %2, ptr %11, align 8
  %12 = getelementptr inbounds nuw i8, ptr %11, i64 8
  store i32 %1, ptr %12, align 8
  %13 = getelementptr inbounds nuw i8, ptr %11, i64 12
  store i8 %5, ptr %13, align 4
  %14 = load i32, ptr %7, align 8
  %15 = icmp eq i32 %14, 32
  br i1 %15, label %16, label %17

16:                                               ; preds = %4
  tail call fastcc void @smgr_bulk_flush(ptr noundef nonnull %0)
  br label %17

17:                                               ; preds = %16, %4
  ret void
}